; Function Attrs: nounwind uwtable
define i64 @H5F_shared_get_eoa(ptr noundef readonly captures(none) %0, i32 noundef %1) local_unnamed_addr #2 {
  %3 = load i8, ptr @H5F_init_g, align 1, !tbaa !84, !range !43, !noundef !44
  %4 = trunc nuw i8 %3 to i1
  %5 = load i8, ptr @H5_libterm_g, align 1, !range !43
  %6 = trunc nuw i8 %5 to i1
  %7 = select i1 %4, i1 true, i1 %6
  br i1 %7, label %15, label %8, !prof !85

8:                                                ; preds = %2
  store i8 1, ptr @H5F_init_g, align 1, !tbaa !84
  %9 = tail call i32 @H5F__init_package() #5
  %10 = icmp slt i32 %9, 0
  br i1 %10, label %11, label %._crit_edge

._crit_edge:                                      ; preds = %8
  %.pre = load i8, ptr @H5F_init_g, align 1, !tbaa !84, !range !43
  %.pre5 = load i8, ptr @H5_libterm_g, align 1, !range !43
  %.pre6 = trunc nuw i8 %.pre to i1
  %.pre7 = trunc nuw i8 %.pre5 to i1
  br label %15

11:                                               ; preds = %8
  store i8 0, ptr @H5F_init_g, align 1, !tbaa !84
  %12 = load i64, ptr @H5E_FUNC_g, align 8, !tbaa !86
  %13 = load i64, ptr @H5E_CANTINIT_g, align 8, !tbaa !86
  %14 = tail call i32 (ptr, ptr, i32, i64, i64, ptr, ...) @H5E_printf_stack(ptr noundef nonnull @.str, ptr noundef nonnull @__func__.H5F_shared_get_eoa, i32 noundef 902, i64 noundef %12, i64 noundef %13, ptr noundef nonnull @.str.1) #5
  br label %26

15:                                               ; preds = %._crit_edge, %2
  %.pre-phi8 = phi i1 [ %.pre7, %._crit_edge ], [ %6, %2 ]
  %.pre-phi = phi i1 [ %.pre6, %._crit_edge ], [ %4, %2 ]
  %16 = xor i1 %.pre-phi8, true
  %17 = select i1 %.pre-phi, i1 true, i1 %16
  br i1 %17, label %18, label %26, !prof !85

18:                                               ; preds = %15
  %19 = load ptr, ptr %0, align 8, !tbaa !79
  %20 = tail call i64 @H5FD_get_eoa(ptr noundef %19, i32 noundef %1) #5
  %21 = icmp eq i64 %20, -1
  br i1 %21, label %22, label %26

22:                                               ; preds = %18
  %23 = load i64, ptr @H5E_VFL_g, align 8, !tbaa !86
  %24 = load i64, ptr @H5E_CANTINIT_g, align 8, !tbaa !86
  %25 = tail call i32 (ptr, ptr, i32, i64, i64, ptr, ...) @H5E_printf_stack(ptr noundef nonnull @.str, ptr noundef nonnull @__func__.H5F_shared_get_eoa, i32 noundef 908, i64 noundef %23, i64 noundef %24, ptr noundef nonnull @.str.3) #5
  br label %26

26:                                               ; preds = %11, %22, %18, %15
  %.0 = phi i64 [ -1, %11 ], [ -1, %22 ], [ %20, %18 ], [ -1, %15 ]
  ret i64 %.0
}